target datalayout = "e-m:e-p270:32:32-p271:32:32-p272:64:64-i64:64-i128:128-f80:128-n8:16:32:64-S128"
target triple = "x86_64-unknown-linux-gnu"

%"class.node::MemoryRetainer" = type { ptr }
%"class.node::quic::Session::Application" = type { %"class.node::MemoryRetainer", ptr }
%"class.node::BaseObjectPtrImpl.114" = type { %union.anon.115 }
%union.anon.115 = type { ptr }
%struct.ngtcp2_vec = type { ptr, i64 }
%class.anon = type { ptr }
%class.anon.203 = type { ptr, ptr, ptr, ptr }

; Function Attrs: mustprogress nounwind uwtable
define linkonce_odr dso_local noundef ptr @_ZNK4node17BaseObjectPtrImplINS_4quic6PacketELb0EE15get_base_objectEv(ptr noundef nonnull align 8 dereferenceable(8) %this) #4 comdat align 2 {
entry:
  %this.addr = alloca ptr, align 8
  store ptr %this, ptr %this.addr, align 8
  %this1 = load ptr, ptr %this.addr, align 8
  %data_ = getelementptr inbounds %"class.node::BaseObjectPtrImpl.114", ptr %this1, i32 0, i32 0
  %0 = load ptr, ptr %data_, align 8
  ret ptr %0
}

; Function Attrs: mustprogress nounwind uwtable
define linkonce_odr dso_local noundef ptr @_ZNK4node17BaseObjectPtrImplINS_4quic6PacketELb0EE3getEv(ptr noundef nonnull align 8 dereferenceable(8) %this) #4 comdat align 2 {
entry:
  %this.addr = alloca ptr, align 8
  store ptr %this, ptr %this.addr, align 8
  %this1 = load ptr, ptr %this.addr, align 8
  %call = call noundef ptr @_ZNK4node17BaseObjectPtrImplINS_4quic6PacketELb0EE15get_base_objectEv(ptr noundef nonnull align 8 dereferenceable(8) %this1)
  ret ptr %call
}

; Function Attrs: mustprogress nounwind uwtable
define internal void @"_ZZN4node4quic7Session11Application15SendPendingDataEvENK3$_1clEv"(ptr noundef nonnull align 8 dereferenceable(8) %this) #4 align 2 {
entry:
  %this.addr = alloca ptr, align 8
  store ptr %this, ptr %this.addr, align 8
  %this1 = load ptr, ptr %this.addr, align 8
  %0 = getelementptr inbounds %class.anon, ptr %this1, i32 0, i32 0
  %1 = load ptr, ptr %0, align 8
  %session_ = getelementptr inbounds %"class.node::quic::Session::Application", ptr %1, i32 0, i32 1
  %2 = load ptr, ptr %session_, align 8
  %call = call noundef ptr @_ZNK4node4quic7SessioncvP11ngtcp2_connEv(ptr noundef nonnull align 8 dereferenceable(2616) %2)
  %call2 = call i64 @uv_hrtime()
  call void @ngtcp2_conn_update_pkt_tx_time(ptr noundef %call, i64 noundef %call2)
  %session_3 = getelementptr inbounds %"class.node::quic::Session::Application", ptr %1, i32 0, i32 1
  %3 = load ptr, ptr %session_3, align 8
  call void @_ZN4node4quic7Session11UpdateTimerEv(ptr noundef nonnull align 8 dereferenceable(2616) %3)
  ret void
}

; Function Attrs: mustprogress nounwind uwtable
define linkonce_odr dso_local void @_ZN4node17BaseObjectPtrImplINS_4quic6PacketELb0EED2Ev(ptr noundef nonnull align 8 dereferenceable(8) %this) unnamed_addr #4 comdat align 2 {
entry:
  %this.addr = alloca ptr, align 8
  store ptr %this, ptr %this.addr, align 8
  %this1 = load ptr, ptr %this.addr, align 8
  %call = call noundef ptr @_ZNK4node17BaseObjectPtrImplINS_4quic6PacketELb0EE3getEv(ptr noundef nonnull align 8 dereferenceable(8) %this1)
  %cmp = icmp ne ptr %call, null
  br i1 %cmp, label %if.then, label %if.end

if.then:                                          ; preds = %entry
  %call2 = call noundef ptr @_ZNK4node17BaseObjectPtrImplINS_4quic6PacketELb0EE3getEv(ptr noundef nonnull align 8 dereferenceable(8) %this1)
  call void @_ZN4node10BaseObject17decrease_refcountEv(ptr noundef nonnull align 8 dereferenceable(32) %call2)
  br label %if.end

if.end:                                           ; preds = %if.then, %entry
  ret void
}

; Function Attrs: mustprogress nounwind uwtable
define linkonce_odr dso_local void @_ZN4node17BaseObjectPtrImplINS_4quic6PacketELb0EEC2EOS3_(ptr noundef nonnull align 8 dereferenceable(8) %this, ptr noundef nonnull align 8 dereferenceable(8) %other) unnamed_addr #4 comdat align 2 {
entry:
  %this.addr = alloca ptr, align 8
  %other.addr = alloca ptr, align 8
  store ptr %this, ptr %this.addr, align 8
  store ptr %other, ptr %other.addr, align 8
  %this1 = load ptr, ptr %this.addr, align 8
  %data_ = getelementptr inbounds %"class.node::BaseObjectPtrImpl.114", ptr %this1, i32 0, i32 0
  %0 = load ptr, ptr %other.addr, align 8
  %data_2 = getelementptr inbounds %"class.node::BaseObjectPtrImpl.114", ptr %0, i32 0, i32 0
  call void @llvm.memcpy.p0.p0.i64(ptr align 8 %data_, ptr align 8 %data_2, i64 8, i1 false)
  %1 = load ptr, ptr %other.addr, align 8
  %data_3 = getelementptr inbounds %"class.node::BaseObjectPtrImpl.114", ptr %1, i32 0, i32 0
  store ptr null, ptr %data_3, align 8
  ret void
}

; Function Attrs: mustprogress nounwind uwtable
define linkonce_odr dso_local noundef ptr @_ZNK4node17BaseObjectPtrImplINS_4quic6PacketELb0EEptEv(ptr noundef nonnull align 8 dereferenceable(8) %this) #4 comdat align 2 {
entry:
  %this.addr = alloca ptr, align 8
  store ptr %this, ptr %this.addr, align 8
  %this1 = load ptr, ptr %this.addr, align 8
  %call = call noundef ptr @_ZNK4node17BaseObjectPtrImplINS_4quic6PacketELb0EE3getEv(ptr noundef nonnull align 8 dereferenceable(8) %this1)
  ret ptr %call
}

; Function Attrs: mustprogress nounwind uwtable
define linkonce_odr dso_local noundef nonnull align 8 dereferenceable(576) ptr @_ZNK4node17BaseObjectPtrImplINS_4quic6PacketELb0EEdeEv(ptr noundef nonnull align 8 dereferenceable(8) %this) #4 comdat align 2 {
entry:
  %this.addr = alloca ptr, align 8
  store ptr %this, ptr %this.addr, align 8
  %this1 = load ptr, ptr %this.addr, align 8
  %call = call noundef ptr @_ZNK4node17BaseObjectPtrImplINS_4quic6PacketELb0EE3getEv(ptr noundef nonnull align 8 dereferenceable(8) %this1)
  ret ptr %call
}

; Function Attrs: mustprogress nounwind uwtable
define internal void @"_ZZN4node4quic7Session11Application15SendPendingDataEvENK3$_0clINS_17BaseObjectPtrImplINS0_6PacketELb0EEEEEDaT_"(ptr noundef nonnull align 8 dereferenceable(32) %this, ptr noundef %packet) #4 align 2 {
entry:
  %this.addr = alloca ptr, align 8
  %packet.indirect_addr = alloca ptr, align 8
  %len = alloca i64, align 8
  %ref.tmp = alloca %struct.ngtcp2_vec, align 8
  %agg.tmp = alloca %"class.node::BaseObjectPtrImpl.114", align 8
  store ptr %this, ptr %this.addr, align 8
  store ptr %packet, ptr %packet.indirect_addr, align 8
  %this1 = load ptr, ptr %this.addr, align 8
  %0 = getelementptr inbounds %class.anon.203, ptr %this1, i32 0, i32 1
  %1 = load ptr, ptr %0, align 8
  %2 = getelementptr inbounds %class.anon.203, ptr %this1, i32 0, i32 0
  %3 = load ptr, ptr %2, align 8
  %4 = load ptr, ptr %3, align 8
  %call = call noundef nonnull align 8 dereferenceable(576) ptr @_ZNK4node17BaseObjectPtrImplINS_4quic6PacketELb0EEdeEv(ptr noundef nonnull align 8 dereferenceable(8) %packet)
  %call2 = call { ptr, i64 } @_ZNK4node4quic6Packetcv10ngtcp2_vecEv(ptr noundef nonnull align 8 dereferenceable(576) %call)
  %5 = getelementptr inbounds { ptr, i64 }, ptr %ref.tmp, i32 0, i32 0
  %6 = extractvalue { ptr, i64 } %call2, 0
  store ptr %6, ptr %5, align 8
  %7 = getelementptr inbounds { ptr, i64 }, ptr %ref.tmp, i32 0, i32 1
  %8 = extractvalue { ptr, i64 } %call2, 1
  store i64 %8, ptr %7, align 8
  %base = getelementptr inbounds %struct.ngtcp2_vec, ptr %ref.tmp, i32 0, i32 0
  %9 = load ptr, ptr %base, align 8
  %sub.ptr.lhs.cast = ptrtoint ptr %4 to i64
  %sub.ptr.rhs.cast = ptrtoint ptr %9 to i64
  %sub.ptr.sub = sub i64 %sub.ptr.lhs.cast, %sub.ptr.rhs.cast
  store i64 %sub.ptr.sub, ptr %len, align 8
  %10 = load i64, ptr %len, align 8
  %tobool = icmp ne i64 %10, 0
  br i1 %tobool, label %if.then, label %if.end

if.then:                                          ; preds = %entry
  %call3 = call noundef ptr @_ZNK4node17BaseObjectPtrImplINS_4quic6PacketELb0EEptEv(ptr noundef nonnull align 8 dereferenceable(8) %packet)
  %11 = load i64, ptr %len, align 8
  call void @_ZN4node4quic6Packet8TruncateEm(ptr noundef nonnull align 8 dereferenceable(576) %call3, i64 noundef %11)
  %session_ = getelementptr inbounds %"class.node::quic::Session::Application", ptr %1, i32 0, i32 1
  %12 = load ptr, ptr %session_, align 8
  call void @_ZN4node17BaseObjectPtrImplINS_4quic6PacketELb0EEC2EOS3_(ptr noundef nonnull align 8 dereferenceable(8) %agg.tmp, ptr noundef nonnull align 8 dereferenceable(8) %packet)
  %13 = getelementptr inbounds %class.anon.203, ptr %this1, i32 0, i32 2
  %14 = load ptr, ptr %13, align 8
  call void @_ZN4node4quic7Session4SendENS_17BaseObjectPtrImplINS0_6PacketELb0EEERKNS0_11PathStorageE(ptr noundef nonnull align 8 dereferenceable(2616) %12, ptr noundef %agg.tmp, ptr noundef nonnull align 8 dereferenceable(296) %14)
  call void @_ZN4node17BaseObjectPtrImplINS_4quic6PacketELb0EED2Ev(ptr noundef nonnull align 8 dereferenceable(8) %agg.tmp) #3
  br label %if.end

if.end:                                           ; preds = %if.then, %entry
  %15 = getelementptr inbounds %class.anon.203, ptr %this1, i32 0, i32 3
  %16 = load ptr, ptr %15, align 8
  call void @"_ZZN4node4quic7Session11Application15SendPendingDataEvENK3$_1clEv"(ptr noundef nonnull align 8 dereferenceable(8) %16)
  ret void
}