; Function Attrs: mustprogress nounwind uwtable
define internal fastcc void @"_ZZN4node4quic7Session11Application15SendPendingDataEvENK3$_0clINS_17BaseObjectPtrImplINS0_6PacketELb0EEEEEDaT_"(ptr nocapture noundef nonnull readonly align 8 dereferenceable(32) %this, ptr nocapture noundef %packet) unnamed_addr #3 align 2 {
entry:
  %agg.tmp = alloca %"class.node::BaseObjectPtrImpl.114", align 8
  %0 = getelementptr inbounds i8, ptr %this, i64 8
  %1 = load ptr, ptr %0, align 8
  %2 = load ptr, ptr %this, align 8
  %3 = load ptr, ptr %2, align 8
  %4 = load ptr, ptr %packet, align 8
  %call2 = tail call { ptr, i64 } @_ZNK4node4quic6Packetcv10ngtcp2_vecEv(ptr noundef nonnull align 8 dereferenceable(576) %4) #18
  %5 = extractvalue { ptr, i64 } %call2, 0
  %tobool.not = icmp eq ptr %3, %5
  br i1 %tobool.not, label %if.end, label %if.then

if.then:                                          ; preds = %entry
  %sub.ptr.rhs.cast = ptrtoint ptr %5 to i64
  %sub.ptr.lhs.cast = ptrtoint ptr %3 to i64
  %sub.ptr.sub = sub i64 %sub.ptr.lhs.cast, %sub.ptr.rhs.cast
  %6 = load ptr, ptr %packet, align 8
  tail call void @_ZN4node4quic6Packet8TruncateEm(ptr noundef nonnull align 8 dereferenceable(576) %6, i64 noundef %sub.ptr.sub) #18
  %session_ = getelementptr inbounds i8, ptr %1, i64 8
  %7 = load ptr, ptr %session_, align 8
  %8 = load i64, ptr %packet, align 8
  store i64 %8, ptr %agg.tmp, align 8
  store ptr null, ptr %packet, align 8
  %9 = getelementptr inbounds i8, ptr %this, i64 16
  %10 = load ptr, ptr %9, align 8
  call void @_ZN4node4quic7Session4SendENS_17BaseObjectPtrImplINS0_6PacketELb0EEERKNS0_11PathStorageE(ptr noundef nonnull align 8 dereferenceable(2616) %7, ptr noundef nonnull %agg.tmp, ptr noundef nonnull align 8 dereferenceable(296) %10) #18
  %11 = load ptr, ptr %agg.tmp, align 8
  %cmp.not.i = icmp eq ptr %11, null
  br i1 %cmp.not.i, label %if.end, label %if.then.i

if.then.i:                                        ; preds = %if.then
  call void @_ZN4node10BaseObject17decrease_refcountEv(ptr noundef nonnull align 8 dereferenceable(32) %11) #18
  br label %if.end

if.end:                                           ; preds = %if.then.i, %if.then, %entry
  %12 = getelementptr inbounds i8, ptr %this, i64 24
  %13 = load ptr, ptr %12, align 8
  %.val = load ptr, ptr %13, align 8
  %session_.i = getelementptr inbounds i8, ptr %.val, i64 8
  %14 = load ptr, ptr %session_.i, align 8
  %call.i = call noundef ptr @_ZNK4node4quic7SessioncvP11ngtcp2_connEv(ptr noundef nonnull align 8 dereferenceable(2616) %14) #18
  %call2.i = call i64 @uv_hrtime() #18
  call void @ngtcp2_conn_update_pkt_tx_time(ptr noundef %call.i, i64 noundef %call2.i) #18
  %15 = load ptr, ptr %session_.i, align 8
  call void @_ZN4node4quic7Session11UpdateTimerEv(ptr noundef nonnull align 8 dereferenceable(2616) %15) #18
  ret void
}